; Function Attrs: null_pointer_is_valid sspstrong uwtable
define void @ws_log_set_debug_filter(ptr noundef %0) local_unnamed_addr #1 {
  %2 = load ptr, ptr @debug_filter, align 8
  %3 = icmp eq ptr %2, null
  br i1 %3, label %free_log_filter.exit, label %4

4:                                                ; preds = %1
  %5 = load ptr, ptr %2, align 8
  tail call void @g_strfreev(ptr noundef %5)
  %6 = load ptr, ptr @debug_filter, align 8
  tail call void @g_free(ptr noundef %6)
  store ptr null, ptr @debug_filter, align 8
  br label %free_log_filter.exit

free_log_filter.exit:                             ; preds = %1, %4
  %7 = icmp eq ptr %0, null
  br i1 %7, label %tokenize_filter_str.exit, label %8

8:                                                ; preds = %free_log_filter.exit
  %9 = load i8, ptr %0, align 1
  %10 = icmp ne i8 %9, 33
  %not..i = xor i1 %10, true
  %spec.select.idx.i = zext i1 %not..i to i64
  %spec.select.i = getelementptr i8, ptr %0, i64 %spec.select.idx.i
  %11 = load i8, ptr %spec.select.i, align 1
  %12 = icmp eq i8 %11, 0
  br i1 %12, label %tokenize_filter_str.exit, label %13

13:                                               ; preds = %8
  %14 = tail call noalias dereferenceable_or_null(16) ptr @g_malloc(i64 noundef 16) #21
  %15 = tail call ptr @g_strsplit_set(ptr noundef %spec.select.i, ptr noundef nonnull @.str.61, i32 noundef -1)
  store ptr %15, ptr %14, align 8
  %16 = getelementptr inbounds nuw i8, ptr %14, i64 8
  %17 = zext i1 %10 to i8
  store i8 %17, ptr %16, align 8
  %18 = getelementptr inbounds nuw i8, ptr %14, i64 12
  store i32 2, ptr %18, align 4
  store ptr %14, ptr @debug_filter, align 8
  br label %tokenize_filter_str.exit

tokenize_filter_str.exit:                         ; preds = %free_log_filter.exit, %8, %13
  ret void
}